; Function Attrs: mustprogress uwtable
define void @_ZN3gmx26SelectionParserSymbolTableC2Ev(ptr noundef nonnull align 8 dereferenceable(8) %0) unnamed_addr #7 align 2 personality ptr @__gxx_personality_v0 {
  %2 = tail call noalias noundef nonnull dereferenceable(48) ptr @_Znwm(i64 noundef 48) #23
  %3 = getelementptr inbounds i8, ptr %2, i64 8
  store i32 0, ptr %3, align 8
  %4 = getelementptr inbounds i8, ptr %2, i64 16
  store ptr null, ptr %4, align 8
  %5 = getelementptr inbounds i8, ptr %2, i64 24
  store ptr %3, ptr %5, align 8
  %6 = getelementptr inbounds i8, ptr %2, i64 32
  store ptr %3, ptr %6, align 8
  %7 = getelementptr inbounds i8, ptr %2, i64 40
  store i64 0, ptr %7, align 8
  store ptr %2, ptr %0, align 8
  invoke void @_ZN3gmx26SelectionParserSymbolTable4Impl18addReservedSymbolsEv(ptr noundef nonnull align 8 dereferenceable(48) %2)
          to label %8 unwind label %11

8:                                                ; preds = %1
  %9 = load ptr, ptr %0, align 8
  invoke void @_ZN3gmx26SelectionParserSymbolTable4Impl18addPositionSymbolsEv(ptr noundef nonnull align 8 dereferenceable(48) %9)
          to label %10 unwind label %11

10:                                               ; preds = %8
  ret void

11:                                               ; preds = %8, %1
  %12 = landingpad { ptr, i32 }
          cleanup
  tail call void @_ZNSt10unique_ptrIN3gmx26SelectionParserSymbolTable4ImplESt14default_deleteIS2_EED2Ev(ptr noundef nonnull align 8 dereferenceable(8) %0) #19
  resume { ptr, i32 } %12
}